target datalayout = "e-m:e-p270:32:32-p271:32:32-p272:64:64-i64:64-i128:128-f80:128-n8:16:32:64-S128"
target triple = "x86_64-pc-linux-gnu"

%struct.AVCodecContext = type { ptr, i32, i32, ptr, i32, i32, ptr, ptr, ptr, i64, i32, i32, ptr, i32, %struct.AVRational, %struct.AVRational, %struct.AVRational, i32, i32, i32, i32, i32, %struct.AVRational, i32, i32, i32, i32, i32, i32, i32, i32, i32, i32, i32, ptr, ptr, i32, float, float, float, float, float, float, float, float, float, i32, i32, i32, i32, i32, i32, i32, i32, i32, i32, i32, i32, ptr, ptr, ptr, i32, i32, i32, i32, i32, i32, i32, i32, i32, i32, %struct.AVChannelLayout, i32, i32, i32, i32, i32, i32, i32, i32, ptr, i32, i32, i32, float, float, i32, i32, i32, i32, i32, ptr, i64, i64, float, float, i32, i32, ptr, ptr, i32, i32, i32, i32, i32, ptr, ptr, ptr, ptr, i32, i32, [8 x i64], i32, i32, i32, i32, i32, i32, i32, ptr, ptr, i32, i32, i32, i32, i32, i32, i32, i32, i32, i32, ptr, ptr, i32, i32, ptr, ptr, ptr, ptr, i32, i32, i64, i32, i32, i64, ptr, i64, ptr, i32, ptr, i32 }
%struct.AVRational = type { i32, i32 }
%struct.AVChannelLayout = type { i32, i32, %union.anon, ptr }
%union.anon = type { i64 }
%struct.MJpegDecodeContext = type { ptr, ptr, %struct.GetBitContext, i32, i32, i32, ptr, [4 x [64 x i16]], [3 x [4 x %struct.VLC]], [4 x i32], i32, i32, i32, i32, i32, i32, i32, i32, i32, [4 x i8], [4 x i8], i32, i32, i32, i32, i32, i32, i32, i32, i32, i32, i32, i32, i32, i32, i32, i32, i32, [4 x i32], [4 x i32], [4 x i32], [4 x i32], [4 x i32], [4 x i32], [4 x i32], [4 x i32], [4 x i32], [4 x i32], [4 x i32], i32, i32, [4 x i32], [4 x i32], ptr, ptr, i32, [4 x i32], ptr, [64 x i16], [4 x ptr], [4 x ptr], [4 x i64], i32, i32, [64 x i8], %struct.BlockDSPContext, %struct.HpelDSPContext, %struct.IDCTDSPContext, i32, i32, i32, i32, i32, i32, i32, i32, i32, ptr, i32, i32, ptr, ptr, ptr, ptr, i32, i32, ptr, i32, i32, ptr, i64, ptr, i64, [2 x [4 x [16 x i8]]], [2 x [4 x [256 x i8]]], i32, i32, ptr, ptr, [8 x i8] }
%struct.GetBitContext = type { ptr, ptr, i32, i32, i32 }
%struct.VLC = type { i32, ptr, i32, i32 }
%struct.BlockDSPContext = type { ptr, ptr, [2 x ptr] }
%struct.HpelDSPContext = type { [4 x [4 x ptr]], [4 x [4 x ptr]], [4 x [4 x ptr]], [4 x ptr] }
%struct.IDCTDSPContext = type { ptr, ptr, ptr, ptr, ptr, ptr, [64 x i8], i32, i32 }

@.str.5 = private unnamed_addr constant [26 x i8] c"dqt: len %d is too large\0A\00", align 1
@.str.6 = private unnamed_addr constant [24 x i8] c"dqt: invalid precision\0A\00", align 1
@.str.7 = private unnamed_addr constant [10 x i8] c"index=%d\0A\00", align 1
@.str.8 = private unnamed_addr constant [20 x i8] c"dqt: 0 quant value\0A\00", align 1
@.str.9 = private unnamed_addr constant [16 x i8] c"qscale[%d]: %d\0A\00", align 1

; Function Attrs: inlinehint nounwind uwtable
define internal i32 @get_bits_count(ptr noundef %0) #4 {
  %2 = alloca ptr, align 8
  store ptr %0, ptr %2, align 8, !tbaa !83
  %3 = load ptr, ptr %2, align 8, !tbaa !83
  %4 = getelementptr inbounds nuw %struct.GetBitContext, ptr %3, i32 0, i32 2
  %5 = load i32, ptr %4, align 8, !tbaa !90
  ret i32 %5
}

; Function Attrs: alwaysinline nounwind willreturn memory(none) uwtable
define internal i32 @av_bswap32(i32 noundef %0) #10 {
  %2 = alloca i32, align 4
  store i32 %0, ptr %2, align 4, !tbaa !57
  %3 = load i32, ptr %2, align 4, !tbaa !57
  %4 = shl i32 %3, 8
  %5 = and i32 %4, 65280
  %6 = load i32, ptr %2, align 4, !tbaa !57
  %7 = lshr i32 %6, 8
  %8 = and i32 %7, 255
  %9 = or i32 %5, %8
  %10 = shl i32 %9, 16
  %11 = load i32, ptr %2, align 4, !tbaa !57
  %12 = lshr i32 %11, 16
  %13 = shl i32 %12, 8
  %14 = and i32 %13, 65280
  %15 = load i32, ptr %2, align 4, !tbaa !57
  %16 = lshr i32 %15, 16
  %17 = lshr i32 %16, 8
  %18 = and i32 %17, 255
  %19 = or i32 %14, %18
  %20 = or i32 %10, %19
  ret i32 %20
}

; Function Attrs: inlinehint nounwind uwtable
define internal i32 @get_bits_left(ptr noundef %0) #4 {
  %2 = alloca ptr, align 8
  store ptr %0, ptr %2, align 8, !tbaa !83
  %3 = load ptr, ptr %2, align 8, !tbaa !83
  %4 = getelementptr inbounds nuw %struct.GetBitContext, ptr %3, i32 0, i32 3
  %5 = load i32, ptr %4, align 4, !tbaa !87
  %6 = load ptr, ptr %2, align 8, !tbaa !83
  %7 = call i32 @get_bits_count(ptr noundef %6)
  %8 = sub nsw i32 %5, %7
  ret i32 %8
}

; Function Attrs: inlinehint nounwind uwtable
define internal i32 @get_bits(ptr noundef %0, i32 noundef %1) #4 {
  %3 = alloca ptr, align 8
  %4 = alloca i32, align 4
  %5 = alloca i32, align 4
  %6 = alloca i32, align 4
  %7 = alloca i32, align 4
  %8 = alloca i32, align 4
  store ptr %0, ptr %3, align 8, !tbaa !83
  store i32 %1, ptr %4, align 4, !tbaa !57
  call void @llvm.lifetime.start.p0(i64 4, ptr %5) #13
  call void @llvm.lifetime.start.p0(i64 4, ptr %6) #13
  %9 = load ptr, ptr %3, align 8, !tbaa !83
  %10 = getelementptr inbounds nuw %struct.GetBitContext, ptr %9, i32 0, i32 2
  %11 = load i32, ptr %10, align 8, !tbaa !90
  store i32 %11, ptr %6, align 4, !tbaa !57
  call void @llvm.lifetime.start.p0(i64 4, ptr %7) #13
  call void @llvm.lifetime.start.p0(i64 4, ptr %8) #13
  %12 = load ptr, ptr %3, align 8, !tbaa !83
  %13 = getelementptr inbounds nuw %struct.GetBitContext, ptr %12, i32 0, i32 4
  %14 = load i32, ptr %13, align 8, !tbaa !88
  store i32 %14, ptr %8, align 4, !tbaa !57
  %15 = load ptr, ptr %3, align 8, !tbaa !83
  %16 = getelementptr inbounds nuw %struct.GetBitContext, ptr %15, i32 0, i32 0
  %17 = load ptr, ptr %16, align 8, !tbaa !86
  %18 = load i32, ptr %6, align 4, !tbaa !57
  %19 = lshr i32 %18, 3
  %20 = zext i32 %19 to i64
  %21 = getelementptr inbounds nuw i8, ptr %17, i64 %20
  %22 = load i32, ptr %21, align 1, !tbaa !64
  %23 = call i32 @av_bswap32(i32 noundef %22) #14
  %24 = load i32, ptr %6, align 4, !tbaa !57
  %25 = and i32 %24, 7
  %26 = shl i32 %23, %25
  %27 = lshr i32 %26, 0
  store i32 %27, ptr %7, align 4, !tbaa !57
  %28 = load i32, ptr %7, align 4, !tbaa !57
  %29 = load i32, ptr %4, align 4, !tbaa !57
  %30 = sub nsw i32 32, %29
  %31 = lshr i32 %28, %30
  store i32 %31, ptr %5, align 4, !tbaa !57
  %32 = load i32, ptr %8, align 4, !tbaa !57
  %33 = load i32, ptr %6, align 4, !tbaa !57
  %34 = load i32, ptr %4, align 4, !tbaa !57
  %35 = add i32 %33, %34
  %36 = icmp ugt i32 %32, %35
  br i1 %36, label %37, label %41

37:                                               ; preds = %2
  %38 = load i32, ptr %6, align 4, !tbaa !57
  %39 = load i32, ptr %4, align 4, !tbaa !57
  %40 = add i32 %38, %39
  br label %43

41:                                               ; preds = %2
  %42 = load i32, ptr %8, align 4, !tbaa !57
  br label %43

43:                                               ; preds = %41, %37
  %44 = phi i32 [ %40, %37 ], [ %42, %41 ]
  store i32 %44, ptr %6, align 4, !tbaa !57
  %45 = load i32, ptr %6, align 4, !tbaa !57
  %46 = load ptr, ptr %3, align 8, !tbaa !83
  %47 = getelementptr inbounds nuw %struct.GetBitContext, ptr %46, i32 0, i32 2
  store i32 %45, ptr %47, align 8, !tbaa !90
  %48 = load i32, ptr %5, align 4, !tbaa !57
  call void @llvm.lifetime.end.p0(i64 4, ptr %8) #13
  call void @llvm.lifetime.end.p0(i64 4, ptr %7) #13
  call void @llvm.lifetime.end.p0(i64 4, ptr %6) #13
  call void @llvm.lifetime.end.p0(i64 4, ptr %5) #13
  ret i32 %48
}

; Function Attrs: nounwind uwtable
define i32 @ff_mjpeg_decode_dqt(ptr noundef %0) #3 {
  %2 = alloca i32, align 4
  %3 = alloca ptr, align 8
  %4 = alloca i32, align 4
  %5 = alloca i32, align 4
  %6 = alloca i32, align 4
  %7 = alloca i32, align 4
  %8 = alloca i32, align 4
  %9 = alloca i32, align 4
  store ptr %0, ptr %3, align 8, !tbaa !29
  call void @llvm.lifetime.start.p0(i64 4, ptr %4) #13
  call void @llvm.lifetime.start.p0(i64 4, ptr %5) #13
  call void @llvm.lifetime.start.p0(i64 4, ptr %6) #13
  %10 = load ptr, ptr %3, align 8, !tbaa !29
  %11 = getelementptr inbounds nuw %struct.MJpegDecodeContext, ptr %10, i32 0, i32 2
  %12 = call i32 @get_bits(ptr noundef %11, i32 noundef 16)
  %13 = sub i32 %12, 2
  store i32 %13, ptr %4, align 4, !tbaa !57
  %14 = load i32, ptr %4, align 4, !tbaa !57
  %15 = mul nsw i32 8, %14
  %16 = load ptr, ptr %3, align 8, !tbaa !29
  %17 = getelementptr inbounds nuw %struct.MJpegDecodeContext, ptr %16, i32 0, i32 2
  %18 = call i32 @get_bits_left(ptr noundef %17)
  %19 = icmp sgt i32 %15, %18
  br i1 %19, label %20, label %25

20:                                               ; preds = %1
  %21 = load ptr, ptr %3, align 8, !tbaa !29
  %22 = getelementptr inbounds nuw %struct.MJpegDecodeContext, ptr %21, i32 0, i32 1
  %23 = load ptr, ptr %22, align 8, !tbaa !44
  %24 = load i32, ptr %4, align 4, !tbaa !57
  call void (ptr, i32, ptr, ...) @av_log(ptr noundef %23, i32 noundef 16, ptr noundef @.str.5, i32 noundef %24)
  store i32 -1094995529, ptr %2, align 4
  store i32 1, ptr %7, align 4
  br label %174

25:                                               ; preds = %1
  br label %26

26:                                               ; preds = %172, %25
  %27 = load i32, ptr %4, align 4, !tbaa !57
  %28 = icmp sge i32 %27, 65
  br i1 %28, label %29, label %173

29:                                               ; preds = %26
  call void @llvm.lifetime.start.p0(i64 4, ptr %8) #13
  %30 = load ptr, ptr %3, align 8, !tbaa !29
  %31 = getelementptr inbounds nuw %struct.MJpegDecodeContext, ptr %30, i32 0, i32 2
  %32 = call i32 @get_bits(ptr noundef %31, i32 noundef 4)
  store i32 %32, ptr %8, align 4, !tbaa !57
  %33 = load i32, ptr %8, align 4, !tbaa !57
  %34 = icmp sgt i32 %33, 1
  br i1 %34, label %35, label %39

35:                                               ; preds = %29
  %36 = load ptr, ptr %3, align 8, !tbaa !29
  %37 = getelementptr inbounds nuw %struct.MJpegDecodeContext, ptr %36, i32 0, i32 1
  %38 = load ptr, ptr %37, align 8, !tbaa !44
  call void (ptr, i32, ptr, ...) @av_log(ptr noundef %38, i32 noundef 16, ptr noundef @.str.6)
  store i32 -1094995529, ptr %2, align 4
  store i32 1, ptr %7, align 4
  br label %170

39:                                               ; preds = %29
  %40 = load ptr, ptr %3, align 8, !tbaa !29
  %41 = getelementptr inbounds nuw %struct.MJpegDecodeContext, ptr %40, i32 0, i32 2
  %42 = call i32 @get_bits(ptr noundef %41, i32 noundef 4)
  store i32 %42, ptr %5, align 4, !tbaa !57
  %43 = load i32, ptr %5, align 4, !tbaa !57
  %44 = icmp sge i32 %43, 4
  br i1 %44, label %45, label %46

45:                                               ; preds = %39
  store i32 -1, ptr %2, align 4
  store i32 1, ptr %7, align 4
  br label %170

46:                                               ; preds = %39
  %47 = load ptr, ptr %3, align 8, !tbaa !29
  %48 = getelementptr inbounds nuw %struct.MJpegDecodeContext, ptr %47, i32 0, i32 1
  %49 = load ptr, ptr %48, align 8, !tbaa !44
  %50 = load i32, ptr %5, align 4, !tbaa !57
  call void (ptr, i32, ptr, ...) @av_log(ptr noundef %49, i32 noundef 48, ptr noundef @.str.7, i32 noundef %50)
  store i32 0, ptr %6, align 4, !tbaa !57
  br label %51

51:                                               ; preds = %107, %46
  %52 = load i32, ptr %6, align 4, !tbaa !57
  %53 = icmp slt i32 %52, 64
  br i1 %53, label %54, label %110

54:                                               ; preds = %51
  %55 = load ptr, ptr %3, align 8, !tbaa !29
  %56 = getelementptr inbounds nuw %struct.MJpegDecodeContext, ptr %55, i32 0, i32 2
  %57 = load i32, ptr %8, align 4, !tbaa !57
  %58 = icmp ne i32 %57, 0
  %59 = select i1 %58, i32 16, i32 8
  %60 = call i32 @get_bits(ptr noundef %56, i32 noundef %59)
  %61 = trunc i32 %60 to i16
  %62 = load ptr, ptr %3, align 8, !tbaa !29
  %63 = getelementptr inbounds nuw %struct.MJpegDecodeContext, ptr %62, i32 0, i32 7
  %64 = load i32, ptr %5, align 4, !tbaa !57
  %65 = sext i32 %64 to i64
  %66 = getelementptr inbounds [4 x [64 x i16]], ptr %63, i64 0, i64 %65
  %67 = load i32, ptr %6, align 4, !tbaa !57
  %68 = sext i32 %67 to i64
  %69 = getelementptr inbounds [64 x i16], ptr %66, i64 0, i64 %68
  store i16 %61, ptr %69, align 2, !tbaa !98
  %70 = load ptr, ptr %3, align 8, !tbaa !29
  %71 = getelementptr inbounds nuw %struct.MJpegDecodeContext, ptr %70, i32 0, i32 7
  %72 = load i32, ptr %5, align 4, !tbaa !57
  %73 = sext i32 %72 to i64
  %74 = getelementptr inbounds [4 x [64 x i16]], ptr %71, i64 0, i64 %73
  %75 = load i32, ptr %6, align 4, !tbaa !57
  %76 = sext i32 %75 to i64
  %77 = getelementptr inbounds [64 x i16], ptr %74, i64 0, i64 %76
  %78 = load i16, ptr %77, align 2, !tbaa !98
  %79 = zext i16 %78 to i32
  %80 = icmp eq i32 %79, 0
  br i1 %80, label %81, label %106

81:                                               ; preds = %54
  call void @llvm.lifetime.start.p0(i64 4, ptr %9) #13
  %82 = load ptr, ptr %3, align 8, !tbaa !29
  %83 = getelementptr inbounds nuw %struct.MJpegDecodeContext, ptr %82, i32 0, i32 1
  %84 = load ptr, ptr %83, align 8, !tbaa !44
  %85 = getelementptr inbounds nuw %struct.AVCodecContext, ptr %84, i32 0, i32 104
  %86 = load i32, ptr %85, align 8, !tbaa !100
  %87 = and i32 %86, 8
  %88 = icmp ne i32 %87, 0
  %89 = select i1 %88, i32 16, i32 24
  store i32 %89, ptr %9, align 4, !tbaa !57
  %90 = load ptr, ptr %3, align 8, !tbaa !29
  %91 = getelementptr inbounds nuw %struct.MJpegDecodeContext, ptr %90, i32 0, i32 1
  %92 = load ptr, ptr %91, align 8, !tbaa !44
  %93 = load i32, ptr %9, align 4, !tbaa !57
  call void (ptr, i32, ptr, ...) @av_log(ptr noundef %92, i32 noundef %93, ptr noundef @.str.8)
  %94 = load ptr, ptr %3, align 8, !tbaa !29
  %95 = getelementptr inbounds nuw %struct.MJpegDecodeContext, ptr %94, i32 0, i32 1
  %96 = load ptr, ptr %95, align 8, !tbaa !44
  %97 = getelementptr inbounds nuw %struct.AVCodecContext, ptr %96, i32 0, i32 104
  %98 = load i32, ptr %97, align 8, !tbaa !100
  %99 = and i32 %98, 8
  %100 = icmp ne i32 %99, 0
  br i1 %100, label %101, label %102

101:                                              ; preds = %81
  store i32 -1094995529, ptr %2, align 4
  store i32 1, ptr %7, align 4
  br label %103

102:                                              ; preds = %81
  store i32 0, ptr %7, align 4
  br label %103

103:                                              ; preds = %102, %101
  call void @llvm.lifetime.end.p0(i64 4, ptr %9) #13
  %104 = load i32, ptr %7, align 4
  switch i32 %104, label %170 [
    i32 0, label %105
  ]

105:                                              ; preds = %103
  br label %106

106:                                              ; preds = %105, %54
  br label %107

107:                                              ; preds = %106
  %108 = load i32, ptr %6, align 4, !tbaa !57
  %109 = add nsw i32 %108, 1
  store i32 %109, ptr %6, align 4, !tbaa !57
  br label %51, !llvm.loop !101

110:                                              ; preds = %51
  %111 = load ptr, ptr %3, align 8, !tbaa !29
  %112 = getelementptr inbounds nuw %struct.MJpegDecodeContext, ptr %111, i32 0, i32 7
  %113 = load i32, ptr %5, align 4, !tbaa !57
  %114 = sext i32 %113 to i64
  %115 = getelementptr inbounds [4 x [64 x i16]], ptr %112, i64 0, i64 %114
  %116 = getelementptr inbounds [64 x i16], ptr %115, i64 0, i64 1
  %117 = load i16, ptr %116, align 2, !tbaa !98
  %118 = zext i16 %117 to i32
  %119 = load ptr, ptr %3, align 8, !tbaa !29
  %120 = getelementptr inbounds nuw %struct.MJpegDecodeContext, ptr %119, i32 0, i32 7
  %121 = load i32, ptr %5, align 4, !tbaa !57
  %122 = sext i32 %121 to i64
  %123 = getelementptr inbounds [4 x [64 x i16]], ptr %120, i64 0, i64 %122
  %124 = getelementptr inbounds [64 x i16], ptr %123, i64 0, i64 8
  %125 = load i16, ptr %124, align 8, !tbaa !98
  %126 = zext i16 %125 to i32
  %127 = icmp sgt i32 %118, %126
  br i1 %127, label %128, label %137

128:                                              ; preds = %110
  %129 = load ptr, ptr %3, align 8, !tbaa !29
  %130 = getelementptr inbounds nuw %struct.MJpegDecodeContext, ptr %129, i32 0, i32 7
  %131 = load i32, ptr %5, align 4, !tbaa !57
  %132 = sext i32 %131 to i64
  %133 = getelementptr inbounds [4 x [64 x i16]], ptr %130, i64 0, i64 %132
  %134 = getelementptr inbounds [64 x i16], ptr %133, i64 0, i64 1
  %135 = load i16, ptr %134, align 2, !tbaa !98
  %136 = zext i16 %135 to i32
  br label %146

137:                                              ; preds = %110
  %138 = load ptr, ptr %3, align 8, !tbaa !29
  %139 = getelementptr inbounds nuw %struct.MJpegDecodeContext, ptr %138, i32 0, i32 7
  %140 = load i32, ptr %5, align 4, !tbaa !57
  %141 = sext i32 %140 to i64
  %142 = getelementptr inbounds [4 x [64 x i16]], ptr %139, i64 0, i64 %141
  %143 = getelementptr inbounds [64 x i16], ptr %142, i64 0, i64 8
  %144 = load i16, ptr %143, align 8, !tbaa !98
  %145 = zext i16 %144 to i32
  br label %146

146:                                              ; preds = %137, %128
  %147 = phi i32 [ %136, %128 ], [ %145, %137 ]
  %148 = ashr i32 %147, 1
  %149 = load ptr, ptr %3, align 8, !tbaa !29
  %150 = getelementptr inbounds nuw %struct.MJpegDecodeContext, ptr %149, i32 0, i32 9
  %151 = load i32, ptr %5, align 4, !tbaa !57
  %152 = sext i32 %151 to i64
  %153 = getelementptr inbounds [4 x i32], ptr %150, i64 0, i64 %152
  store i32 %148, ptr %153, align 4, !tbaa !57
  %154 = load ptr, ptr %3, align 8, !tbaa !29
  %155 = getelementptr inbounds nuw %struct.MJpegDecodeContext, ptr %154, i32 0, i32 1
  %156 = load ptr, ptr %155, align 8, !tbaa !44
  %157 = load i32, ptr %5, align 4, !tbaa !57
  %158 = load ptr, ptr %3, align 8, !tbaa !29
  %159 = getelementptr inbounds nuw %struct.MJpegDecodeContext, ptr %158, i32 0, i32 9
  %160 = load i32, ptr %5, align 4, !tbaa !57
  %161 = sext i32 %160 to i64
  %162 = getelementptr inbounds [4 x i32], ptr %159, i64 0, i64 %161
  %163 = load i32, ptr %162, align 4, !tbaa !57
  call void (ptr, i32, ptr, ...) @av_log(ptr noundef %156, i32 noundef 48, ptr noundef @.str.9, i32 noundef %157, i32 noundef %163)
  %164 = load i32, ptr %8, align 4, !tbaa !57
  %165 = add nsw i32 1, %164
  %166 = mul nsw i32 64, %165
  %167 = add nsw i32 1, %166
  %168 = load i32, ptr %4, align 4, !tbaa !57
  %169 = sub nsw i32 %168, %167
  store i32 %169, ptr %4, align 4, !tbaa !57
  store i32 0, ptr %7, align 4
  br label %170

170:                                              ; preds = %146, %103, %45, %35
  call void @llvm.lifetime.end.p0(i64 4, ptr %8) #13
  %171 = load i32, ptr %7, align 4
  switch i32 %171, label %174 [
    i32 0, label %172
  ]

172:                                              ; preds = %170
  br label %26, !llvm.loop !102

173:                                              ; preds = %26
  store i32 0, ptr %2, align 4
  store i32 1, ptr %7, align 4
  br label %174

174:                                              ; preds = %173, %170, %20
  call void @llvm.lifetime.end.p0(i64 4, ptr %6) #13
  call void @llvm.lifetime.end.p0(i64 4, ptr %5) #13
  call void @llvm.lifetime.end.p0(i64 4, ptr %4) #13
  %175 = load i32, ptr %2, align 4
  ret i32 %175
}