; Function Attrs: nounwind uwtable
define range(i32 -1094995529, 1) i32 @ff_mjpeg_decode_dqt(ptr noundef captures(none) %0) local_unnamed_addr #3 {
  %2 = getelementptr inbounds nuw i8, ptr %0, i64 16
  %3 = getelementptr inbounds nuw i8, ptr %0, i64 32
  %4 = load i32, ptr %3, align 8, !tbaa !61
  %5 = getelementptr inbounds nuw i8, ptr %0, i64 40
  %6 = load i32, ptr %5, align 8, !tbaa !59
  %7 = load ptr, ptr %2, align 8, !tbaa !57
  %8 = lshr i32 %4, 3
  %9 = zext nneg i32 %8 to i64
  %10 = getelementptr inbounds nuw i8, ptr %7, i64 %9
  %11 = load i32, ptr %10, align 1, !tbaa !67
  %12 = tail call i32 @llvm.bswap.i32(i32 %11)
  %13 = and i32 %4, 7
  %14 = shl i32 %12, %13
  %15 = lshr i32 %14, 16
  %16 = add i32 %4, 16
  %17 = tail call i32 @llvm.umin.i32(i32 %6, i32 %16)
  store i32 %17, ptr %3, align 8, !tbaa !61
  %18 = add nsw i32 %15, -2
  %19 = shl nsw i32 %18, 3
  %20 = getelementptr i8, ptr %0, i64 36
  %.val57 = load i32, ptr %20, align 4, !tbaa !58
  %21 = sub nsw i32 %.val57, %17
  %22 = icmp sgt i32 %19, %21
  br i1 %22, label %27, label %.preheader

.preheader:                                       ; preds = %1
  %23 = icmp ugt i32 %14, 4390911
  br i1 %23, label %.lr.ph, label %.thread

.lr.ph:                                           ; preds = %.preheader
  %24 = getelementptr inbounds nuw i8, ptr %0, i64 8
  %25 = getelementptr inbounds nuw i8, ptr %0, i64 72
  %26 = getelementptr inbounds nuw i8, ptr %0, i64 872
  br label %30

27:                                               ; preds = %1
  %28 = getelementptr inbounds nuw i8, ptr %0, i64 8
  %29 = load ptr, ptr %28, align 8, !tbaa !41
  tail call void (ptr, i32, ptr, ...) @av_log(ptr noundef %29, i32 noundef 16, ptr noundef nonnull @.str.5, i32 noundef %18) #14
  br label %.thread

30:                                               ; preds = %.lr.ph, %91
  %.04664 = phi i32 [ %18, %.lr.ph ], [ %103, %91 ]
  %31 = load i32, ptr %3, align 8, !tbaa !61
  %32 = load i32, ptr %5, align 8, !tbaa !59
  %33 = load ptr, ptr %2, align 8, !tbaa !57
  %34 = lshr i32 %31, 3
  %35 = zext nneg i32 %34 to i64
  %36 = getelementptr inbounds nuw i8, ptr %33, i64 %35
  %37 = load i32, ptr %36, align 1, !tbaa !67
  %38 = tail call i32 @llvm.bswap.i32(i32 %37)
  %39 = and i32 %31, 7
  %40 = shl i32 %38, %39
  %41 = add i32 %31, 4
  %42 = tail call i32 @llvm.umin.i32(i32 %32, i32 %41)
  store i32 %42, ptr %3, align 8, !tbaa !61
  %43 = icmp ugt i32 %40, 536870911
  br i1 %43, label %44, label %46

44:                                               ; preds = %30
  %45 = load ptr, ptr %24, align 8, !tbaa !41
  tail call void (ptr, i32, ptr, ...) @av_log(ptr noundef %45, i32 noundef 16, ptr noundef nonnull @.str.6) #14
  br label %.thread

46:                                               ; preds = %30
  %47 = lshr i32 %42, 3
  %48 = zext nneg i32 %47 to i64
  %49 = getelementptr inbounds nuw i8, ptr %33, i64 %48
  %50 = load i32, ptr %49, align 1, !tbaa !67
  %51 = tail call i32 @llvm.bswap.i32(i32 %50)
  %52 = and i32 %42, 7
  %53 = shl i32 %51, %52
  %54 = lshr i32 %53, 28
  %55 = add i32 %42, 4
  %56 = tail call i32 @llvm.umin.i32(i32 %32, i32 %55)
  store i32 %56, ptr %3, align 8, !tbaa !61
  %57 = icmp ugt i32 %53, 1073741823
  br i1 %57, label %.thread, label %58

58:                                               ; preds = %46
  %59 = load ptr, ptr %24, align 8, !tbaa !41
  tail call void (ptr, i32, ptr, ...) @av_log(ptr noundef %59, i32 noundef 48, ptr noundef nonnull @.str.7, i32 noundef %54) #14
  %.not = icmp samesign ult i32 %40, 268435456
  %60 = select i1 %.not, i32 8, i32 16
  %61 = sub nuw nsw i32 32, %60
  %62 = zext nneg i32 %54 to i64
  br label %63

63:                                               ; preds = %58, %90
  %indvars.iv = phi i64 [ 0, %58 ], [ %indvars.iv.next, %90 ]
  %64 = load i32, ptr %3, align 8, !tbaa !61
  %65 = load i32, ptr %5, align 8, !tbaa !59
  %66 = load ptr, ptr %2, align 8, !tbaa !57
  %67 = lshr i32 %64, 3
  %68 = zext nneg i32 %67 to i64
  %69 = getelementptr inbounds nuw i8, ptr %66, i64 %68
  %70 = load i32, ptr %69, align 1, !tbaa !67
  %71 = tail call i32 @llvm.bswap.i32(i32 %70)
  %72 = and i32 %64, 7
  %73 = shl i32 %71, %72
  %74 = lshr i32 %73, %61
  %75 = add i32 %64, %60
  %76 = tail call i32 @llvm.umin.i32(i32 %65, i32 %75)
  store i32 %76, ptr %3, align 8, !tbaa !61
  %77 = trunc nuw i32 %74 to i16
  %78 = getelementptr inbounds nuw [4 x [64 x i16]], ptr %25, i64 0, i64 %62, i64 %indvars.iv
  store i16 %77, ptr %78, align 2, !tbaa !89
  %79 = icmp eq i32 %74, 0
  br i1 %79, label %80, label %90

80:                                               ; preds = %63
  %81 = load ptr, ptr %24, align 8, !tbaa !41
  %82 = getelementptr inbounds nuw i8, ptr %81, i64 528
  %83 = load i32, ptr %82, align 8, !tbaa !91
  %84 = and i32 %83, 8
  %85 = xor i32 %84, 24
  tail call void (ptr, i32, ptr, ...) @av_log(ptr noundef %81, i32 noundef %85, ptr noundef nonnull @.str.8) #14
  %86 = load ptr, ptr %24, align 8, !tbaa !41
  %87 = getelementptr inbounds nuw i8, ptr %86, i64 528
  %88 = load i32, ptr %87, align 8, !tbaa !91
  %89 = and i32 %88, 8
  %.not56 = icmp eq i32 %89, 0
  br i1 %.not56, label %90, label %.thread

90:                                               ; preds = %63, %80
  %indvars.iv.next = add nuw nsw i64 %indvars.iv, 1
  %exitcond.not = icmp eq i64 %indvars.iv.next, 64
  br i1 %exitcond.not, label %91, label %63, !llvm.loop !92

91:                                               ; preds = %90
  %92 = getelementptr inbounds nuw [4 x [64 x i16]], ptr %25, i64 0, i64 %62
  %93 = getelementptr inbounds nuw i8, ptr %92, i64 2
  %94 = load i16, ptr %93, align 2, !tbaa !89
  %95 = getelementptr inbounds nuw i8, ptr %92, i64 16
  %96 = load i16, ptr %95, align 8, !tbaa !89
  %. = tail call i16 @llvm.umax.i16(i16 %94, i16 %96)
  %97 = lshr i16 %., 1
  %98 = zext nneg i16 %97 to i32
  %99 = getelementptr inbounds nuw [4 x i32], ptr %26, i64 0, i64 %62
  store i32 %98, ptr %99, align 4, !tbaa !93
  %100 = load ptr, ptr %24, align 8, !tbaa !41
  tail call void (ptr, i32, ptr, ...) @av_log(ptr noundef %100, i32 noundef 48, ptr noundef nonnull @.str.9, i32 noundef %54, i32 noundef %98) #14
  %101 = lshr i32 %40, 22
  %102 = and i32 %101, 64
  %.neg61 = add i32 %.04664, -65
  %103 = sub i32 %.neg61, %102
  %104 = icmp sgt i32 %103, 64
  br i1 %104, label %30, label %.thread, !llvm.loop !94

.thread:                                          ; preds = %91, %46, %80, %.preheader, %44, %27
  %.0 = phi i32 [ -1094995529, %27 ], [ -1094995529, %44 ], [ 0, %.preheader ], [ -1094995529, %80 ], [ 0, %91 ], [ -1, %46 ]
  ret i32 %.0
}